target datalayout = "e-m:e-p270:32:32-p271:32:32-p272:64:64-i64:64-i128:128-f80:128-n8:16:32:64-S128"
target triple = "x86_64-pc-linux-gnu"

; Function Attrs: nounwind uwtable
define i32 @Java_sun_awt_X11_XlibWrapper_XQueryTree(ptr noundef %0, ptr noundef %1, i64 noundef %2, i64 noundef %3, i64 noundef %4, i64 noundef %5, i64 noundef %6, i64 noundef %7) #0 {
  %9 = alloca ptr, align 8
  %10 = alloca ptr, align 8
  %11 = alloca i64, align 8
  %12 = alloca i64, align 8
  %13 = alloca i64, align 8
  %14 = alloca i64, align 8
  %15 = alloca i64, align 8
  %16 = alloca i64, align 8
  store ptr %0, ptr %9, align 8
  store ptr %1, ptr %10, align 8
  store i64 %2, ptr %11, align 8
  store i64 %3, ptr %12, align 8
  store i64 %4, ptr %13, align 8
  store i64 %5, ptr %14, align 8
  store i64 %6, ptr %15, align 8
  store i64 %7, ptr %16, align 8
  %17 = load i64, ptr %11, align 8
  %18 = inttoptr i64 %17 to ptr
  %19 = load i64, ptr %12, align 8
  %20 = load i64, ptr %13, align 8
  %21 = inttoptr i64 %20 to ptr
  %22 = load i64, ptr %14, align 8
  %23 = inttoptr i64 %22 to ptr
  %24 = load i64, ptr %15, align 8
  %25 = inttoptr i64 %24 to ptr
  %26 = load i64, ptr %16, align 8
  %27 = inttoptr i64 %26 to ptr
  %28 = call i32 @XQueryTree(ptr noundef %18, i64 noundef %19, ptr noundef %21, ptr noundef %23, ptr noundef %25, ptr noundef %27)
  ret i32 %28
}