; Function Attrs: nounwind uwtable
define i32 @Java_sun_awt_X11_XlibWrapper_XQueryTree(ptr nocapture noundef readnone %0, ptr nocapture noundef readnone %1, i64 noundef %2, i64 noundef %3, i64 noundef %4, i64 noundef %5, i64 noundef %6, i64 noundef %7) local_unnamed_addr #0 {
  %9 = inttoptr i64 %2 to ptr
  %10 = inttoptr i64 %4 to ptr
  %11 = inttoptr i64 %5 to ptr
  %12 = inttoptr i64 %6 to ptr
  %13 = inttoptr i64 %7 to ptr
  %14 = tail call i32 @XQueryTree(ptr noundef %9, i64 noundef %3, ptr noundef %10, ptr noundef %11, ptr noundef %12, ptr noundef %13) #14
  ret i32 %14
}